target datalayout = "e-m:e-p270:32:32-p271:32:32-p272:64:64-i64:64-i128:128-f80:128-n8:16:32:64-S128"
target triple = "x86_64-pc-linux-gnu"

%struct.asn1_string_st = type { i32, i32, ptr, i64 }

@.str = private unnamed_addr constant [34 x i8] c"../openssl/crypto/asn1/a_bitstr.c\00", align 1

; Function Attrs: nounwind uwtable
define i32 @ASN1_BIT_STRING_set_bit(ptr noundef %0, i32 noundef %1, i32 noundef %2) #0 {
  %4 = alloca i32, align 4
  %5 = alloca ptr, align 8
  %6 = alloca i32, align 4
  %7 = alloca i32, align 4
  %8 = alloca i32, align 4
  %9 = alloca i32, align 4
  %10 = alloca i32, align 4
  %11 = alloca ptr, align 8
  %12 = alloca i32, align 4
  store ptr %0, ptr %5, align 8, !tbaa !3
  store i32 %1, ptr %6, align 4, !tbaa !10
  store i32 %2, ptr %7, align 4, !tbaa !10
  call void @llvm.lifetime.start.p0(i64 4, ptr %8) #5
  call void @llvm.lifetime.start.p0(i64 4, ptr %9) #5
  call void @llvm.lifetime.start.p0(i64 4, ptr %10) #5
  call void @llvm.lifetime.start.p0(i64 8, ptr %11) #5
  %13 = load i32, ptr %6, align 4, !tbaa !10
  %14 = icmp slt i32 %13, 0
  br i1 %14, label %15, label %16

15:                                               ; preds = %3
  store i32 0, ptr %4, align 4
  store i32 1, ptr %12, align 4
  br label %143

16:                                               ; preds = %3
  %17 = load i32, ptr %6, align 4, !tbaa !10
  %18 = sdiv i32 %17, 8
  store i32 %18, ptr %8, align 4, !tbaa !10
  %19 = load i32, ptr %6, align 4, !tbaa !10
  %20 = and i32 %19, 7
  %21 = sub nsw i32 7, %20
  %22 = shl i32 1, %21
  store i32 %22, ptr %9, align 4, !tbaa !10
  %23 = load i32, ptr %9, align 4, !tbaa !10
  %24 = xor i32 %23, -1
  store i32 %24, ptr %10, align 4, !tbaa !10
  %25 = load i32, ptr %7, align 4, !tbaa !10
  %26 = icmp ne i32 %25, 0
  br i1 %26, label %28, label %27

27:                                               ; preds = %16
  store i32 0, ptr %9, align 4, !tbaa !10
  br label %28

28:                                               ; preds = %27, %16
  %29 = load ptr, ptr %5, align 8, !tbaa !3
  %30 = icmp eq ptr %29, null
  br i1 %30, label %31, label %32

31:                                               ; preds = %28
  store i32 0, ptr %4, align 4
  store i32 1, ptr %12, align 4
  br label %143

32:                                               ; preds = %28
  %33 = load ptr, ptr %5, align 8, !tbaa !3
  %34 = getelementptr inbounds nuw %struct.asn1_string_st, ptr %33, i32 0, i32 3
  %35 = load i64, ptr %34, align 8, !tbaa !17
  %36 = and i64 %35, -16
  store i64 %36, ptr %34, align 8, !tbaa !17
  %37 = load ptr, ptr %5, align 8, !tbaa !3
  %38 = getelementptr inbounds nuw %struct.asn1_string_st, ptr %37, i32 0, i32 0
  %39 = load i32, ptr %38, align 8, !tbaa !14
  %40 = load i32, ptr %8, align 4, !tbaa !10
  %41 = add nsw i32 %40, 1
  %42 = icmp slt i32 %39, %41
  br i1 %42, label %48, label %43

43:                                               ; preds = %32
  %44 = load ptr, ptr %5, align 8, !tbaa !3
  %45 = getelementptr inbounds nuw %struct.asn1_string_st, ptr %44, i32 0, i32 2
  %46 = load ptr, ptr %45, align 8, !tbaa !18
  %47 = icmp eq ptr %46, null
  br i1 %47, label %48, label %97

48:                                               ; preds = %43, %32
  %49 = load i32, ptr %7, align 4, !tbaa !10
  %50 = icmp ne i32 %49, 0
  br i1 %50, label %52, label %51

51:                                               ; preds = %48
  store i32 1, ptr %4, align 4
  store i32 1, ptr %12, align 4
  br label %143

52:                                               ; preds = %48
  %53 = load ptr, ptr %5, align 8, !tbaa !3
  %54 = getelementptr inbounds nuw %struct.asn1_string_st, ptr %53, i32 0, i32 2
  %55 = load ptr, ptr %54, align 8, !tbaa !18
  %56 = load ptr, ptr %5, align 8, !tbaa !3
  %57 = getelementptr inbounds nuw %struct.asn1_string_st, ptr %56, i32 0, i32 0
  %58 = load i32, ptr %57, align 8, !tbaa !14
  %59 = sext i32 %58 to i64
  %60 = load i32, ptr %8, align 4, !tbaa !10
  %61 = add nsw i32 %60, 1
  %62 = sext i32 %61 to i64
  %63 = call ptr @CRYPTO_clear_realloc(ptr noundef %55, i64 noundef %59, i64 noundef %62, ptr noundef @.str, i32 noundef 170)
  store ptr %63, ptr %11, align 8, !tbaa !8
  %64 = load ptr, ptr %11, align 8, !tbaa !8
  %65 = icmp eq ptr %64, null
  br i1 %65, label %66, label %67

66:                                               ; preds = %52
  store i32 0, ptr %4, align 4
  store i32 1, ptr %12, align 4
  br label %143

67:                                               ; preds = %52
  %68 = load i32, ptr %8, align 4, !tbaa !10
  %69 = add nsw i32 %68, 1
  %70 = load ptr, ptr %5, align 8, !tbaa !3
  %71 = getelementptr inbounds nuw %struct.asn1_string_st, ptr %70, i32 0, i32 0
  %72 = load i32, ptr %71, align 8, !tbaa !14
  %73 = sub nsw i32 %69, %72
  %74 = icmp sgt i32 %73, 0
  br i1 %74, label %75, label %89

75:                                               ; preds = %67
  %76 = load ptr, ptr %11, align 8, !tbaa !8
  %77 = load ptr, ptr %5, align 8, !tbaa !3
  %78 = getelementptr inbounds nuw %struct.asn1_string_st, ptr %77, i32 0, i32 0
  %79 = load i32, ptr %78, align 8, !tbaa !14
  %80 = sext i32 %79 to i64
  %81 = getelementptr inbounds i8, ptr %76, i64 %80
  %82 = load i32, ptr %8, align 4, !tbaa !10
  %83 = add nsw i32 %82, 1
  %84 = load ptr, ptr %5, align 8, !tbaa !3
  %85 = getelementptr inbounds nuw %struct.asn1_string_st, ptr %84, i32 0, i32 0
  %86 = load i32, ptr %85, align 8, !tbaa !14
  %87 = sub nsw i32 %83, %86
  %88 = sext i32 %87 to i64
  call void @llvm.memset.p0.i64(ptr align 1 %81, i8 0, i64 %88, i1 false)
  br label %89

89:                                               ; preds = %75, %67
  %90 = load ptr, ptr %11, align 8, !tbaa !8
  %91 = load ptr, ptr %5, align 8, !tbaa !3
  %92 = getelementptr inbounds nuw %struct.asn1_string_st, ptr %91, i32 0, i32 2
  store ptr %90, ptr %92, align 8, !tbaa !18
  %93 = load i32, ptr %8, align 4, !tbaa !10
  %94 = add nsw i32 %93, 1
  %95 = load ptr, ptr %5, align 8, !tbaa !3
  %96 = getelementptr inbounds nuw %struct.asn1_string_st, ptr %95, i32 0, i32 0
  store i32 %94, ptr %96, align 8, !tbaa !14
  br label %97

97:                                               ; preds = %89, %43
  %98 = load ptr, ptr %5, align 8, !tbaa !3
  %99 = getelementptr inbounds nuw %struct.asn1_string_st, ptr %98, i32 0, i32 2
  %100 = load ptr, ptr %99, align 8, !tbaa !18
  %101 = load i32, ptr %8, align 4, !tbaa !10
  %102 = sext i32 %101 to i64
  %103 = getelementptr inbounds i8, ptr %100, i64 %102
  %104 = load i8, ptr %103, align 1, !tbaa !19
  %105 = zext i8 %104 to i32
  %106 = load i32, ptr %10, align 4, !tbaa !10
  %107 = and i32 %105, %106
  %108 = load i32, ptr %9, align 4, !tbaa !10
  %109 = or i32 %107, %108
  %110 = trunc i32 %109 to i8
  %111 = load ptr, ptr %5, align 8, !tbaa !3
  %112 = getelementptr inbounds nuw %struct.asn1_string_st, ptr %111, i32 0, i32 2
  %113 = load ptr, ptr %112, align 8, !tbaa !18
  %114 = load i32, ptr %8, align 4, !tbaa !10
  %115 = sext i32 %114 to i64
  %116 = getelementptr inbounds i8, ptr %113, i64 %115
  store i8 %110, ptr %116, align 1, !tbaa !19
  br label %117

117:                                              ; preds = %137, %97
  %118 = load ptr, ptr %5, align 8, !tbaa !3
  %119 = getelementptr inbounds nuw %struct.asn1_string_st, ptr %118, i32 0, i32 0
  %120 = load i32, ptr %119, align 8, !tbaa !14
  %121 = icmp sgt i32 %120, 0
  br i1 %121, label %122, label %135

122:                                              ; preds = %117
  %123 = load ptr, ptr %5, align 8, !tbaa !3
  %124 = getelementptr inbounds nuw %struct.asn1_string_st, ptr %123, i32 0, i32 2
  %125 = load ptr, ptr %124, align 8, !tbaa !18
  %126 = load ptr, ptr %5, align 8, !tbaa !3
  %127 = getelementptr inbounds nuw %struct.asn1_string_st, ptr %126, i32 0, i32 0
  %128 = load i32, ptr %127, align 8, !tbaa !14
  %129 = sub nsw i32 %128, 1
  %130 = sext i32 %129 to i64
  %131 = getelementptr inbounds i8, ptr %125, i64 %130
  %132 = load i8, ptr %131, align 1, !tbaa !19
  %133 = zext i8 %132 to i32
  %134 = icmp eq i32 %133, 0
  br label %135

135:                                              ; preds = %122, %117
  %136 = phi i1 [ false, %117 ], [ %134, %122 ]
  br i1 %136, label %137, label %142

137:                                              ; preds = %135
  %138 = load ptr, ptr %5, align 8, !tbaa !3
  %139 = getelementptr inbounds nuw %struct.asn1_string_st, ptr %138, i32 0, i32 0
  %140 = load i32, ptr %139, align 8, !tbaa !14
  %141 = add nsw i32 %140, -1
  store i32 %141, ptr %139, align 8, !tbaa !14
  br label %117, !llvm.loop !26

142:                                              ; preds = %135
  store i32 1, ptr %4, align 4
  store i32 1, ptr %12, align 4
  br label %143

143:                                              ; preds = %142, %66, %51, %31, %15
  call void @llvm.lifetime.end.p0(i64 8, ptr %11) #5
  call void @llvm.lifetime.end.p0(i64 4, ptr %10) #5
  call void @llvm.lifetime.end.p0(i64 4, ptr %9) #5
  call void @llvm.lifetime.end.p0(i64 4, ptr %8) #5
  %144 = load i32, ptr %4, align 4
  ret i32 %144
}