; Function Attrs: nounwind uwtable
define range(i32 0, 2) i32 @ASN1_BIT_STRING_set_bit(ptr noundef captures(address_is_null) %0, i32 noundef %1, i32 noundef %2) local_unnamed_addr #0 {
  %4 = icmp slt i32 %1, 0
  br i1 %4, label %.critedge, label %5

5:                                                ; preds = %3
  %6 = lshr i32 %1, 3
  %7 = and i32 %1, 7
  %8 = xor i32 %7, 7
  %9 = shl nuw nsw i32 1, %8
  %10 = xor i32 %9, -1
  %.not = icmp eq i32 %2, 0
  %spec.select = select i1 %.not, i32 0, i32 %9
  %11 = icmp eq ptr %0, null
  br i1 %11, label %.critedge, label %12

12:                                               ; preds = %5
  %13 = getelementptr inbounds nuw i8, ptr %0, i64 16
  %14 = load i64, ptr %13, align 8, !tbaa !11
  %15 = and i64 %14, -16
  store i64 %15, ptr %13, align 8, !tbaa !11
  %16 = load i32, ptr %0, align 8, !tbaa !3
  %17 = add nuw nsw i32 %6, 1
  %.not41 = icmp sgt i32 %16, %6
  br i1 %.not41, label %18, label %22

18:                                               ; preds = %12
  %19 = getelementptr inbounds nuw i8, ptr %0, i64 8
  %20 = load ptr, ptr %19, align 8, !tbaa !12
  %21 = icmp eq ptr %20, null
  br i1 %21, label %22, label %39

22:                                               ; preds = %18, %12
  br i1 %.not, label %.critedge, label %23

23:                                               ; preds = %22
  %24 = getelementptr inbounds nuw i8, ptr %0, i64 8
  %25 = load ptr, ptr %24, align 8, !tbaa !12
  %26 = sext i32 %16 to i64
  %27 = zext nneg i32 %17 to i64
  %28 = tail call ptr @CRYPTO_clear_realloc(ptr noundef %25, i64 noundef %26, i64 noundef %27, ptr noundef nonnull @.str, i32 noundef 170) #7
  %29 = icmp eq ptr %28, null
  br i1 %29, label %.critedge, label %30

30:                                               ; preds = %23
  %31 = load i32, ptr %0, align 8, !tbaa !3
  %32 = sub nsw i32 %17, %31
  %33 = icmp sgt i32 %32, 0
  br i1 %33, label %34, label %38

34:                                               ; preds = %30
  %35 = sext i32 %31 to i64
  %36 = getelementptr inbounds i8, ptr %28, i64 %35
  %37 = zext nneg i32 %32 to i64
  tail call void @llvm.memset.p0.i64(ptr nonnull align 1 %36, i8 0, i64 %37, i1 false)
  br label %38

38:                                               ; preds = %34, %30
  store ptr %28, ptr %24, align 8, !tbaa !12
  store i32 %17, ptr %0, align 8, !tbaa !3
  br label %39

39:                                               ; preds = %38, %18
  %40 = phi ptr [ %28, %38 ], [ %20, %18 ]
  %41 = zext nneg i32 %6 to i64
  %42 = getelementptr inbounds nuw i8, ptr %40, i64 %41
  %43 = load i8, ptr %42, align 1, !tbaa !13
  %44 = zext i8 %43 to i32
  %45 = and i32 %44, %10
  %46 = or i32 %45, %spec.select
  %47 = trunc nuw i32 %46 to i8
  store i8 %47, ptr %42, align 1, !tbaa !13
  %.pr = load i32, ptr %0, align 8, !tbaa !3
  %48 = icmp sgt i32 %.pr, 0
  br i1 %48, label %.lr.ph, label %.critedge

.lr.ph:                                           ; preds = %39
  %49 = getelementptr inbounds nuw i8, ptr %0, i64 8
  %50 = load ptr, ptr %49, align 8, !tbaa !12
  %invariant.gep = getelementptr i8, ptr %50, i64 -1
  br label %51

51:                                               ; preds = %.lr.ph, %56
  %52 = phi i32 [ %.pr, %.lr.ph ], [ %57, %56 ]
  %53 = zext nneg i32 %52 to i64
  %gep = getelementptr i8, ptr %invariant.gep, i64 %53
  %54 = load i8, ptr %gep, align 1, !tbaa !13
  %55 = icmp eq i8 %54, 0
  br i1 %55, label %56, label %.critedge

56:                                               ; preds = %51
  %57 = add nsw i32 %52, -1
  store i32 %57, ptr %0, align 8, !tbaa !3
  %58 = icmp sgt i32 %52, 1
  br i1 %58, label %51, label %.critedge, !llvm.loop !20

.critedge:                                        ; preds = %56, %51, %39, %23, %22, %5, %3
  %.0 = phi i32 [ 0, %3 ], [ 0, %5 ], [ 1, %22 ], [ 0, %23 ], [ 1, %39 ], [ 1, %51 ], [ 1, %56 ]
  ret i32 %.0
}